target datalayout = "e-m:e-p270:32:32-p271:32:32-p272:64:64-i64:64-i128:128-f80:128-n8:16:32:64-S128"
target triple = "x86_64-pc-linux-gnu"

%struct.AVRational = type { i32, i32 }
%struct.AVFormatContext = type { ptr, ptr, ptr, ptr, ptr, i32, i32, ptr, i32, ptr, i32, ptr, ptr, i64, i64, i64, i32, i32, i32, i64, i64, ptr, i32, i32, ptr, i32, i32, i32, i32, ptr, i64, i32, i32, %struct.AVIOInterruptCB, i32, i32, i32, i32, i64, i32, i32, i32, i32, i32, i32, i32, i32, i32, i32, i32, i32, i64, i32, i32, i32, i32, i32, ptr, ptr, ptr, ptr, i32, ptr, ptr, ptr, ptr, i32, ptr, ptr, i64, ptr, ptr, ptr, i64 }
%struct.AVIOInterruptCB = type { ptr, ptr }
%struct.AVPacket = type { ptr, i64, i64, ptr, i32, i32, i32, ptr, i32, i64, i64, ptr, ptr, %struct.AVRational }
%struct.FFFormatContext = type { %struct.AVFormatContext, i32, %struct.PacketList, i64, ptr, ptr, i32, ptr, i32 }
%struct.PacketList = type { ptr, ptr }
%struct.AVIOContext = type { ptr, ptr, i32, ptr, ptr, ptr, ptr, ptr, ptr, i64, i32, i32, i32, i32, i32, i64, ptr, ptr, ptr, ptr, i32, i32, ptr, ptr, ptr, i32, ptr, i64, i64 }

@.str.15 = private unnamed_addr constant [6 x i8] c"FRAME\00", align 1

; Function Attrs: alwaysinline nounwind uwtable
define internal ptr @ffformatcontext(ptr noundef %0) #5 {
  %2 = alloca ptr, align 8
  store ptr %0, ptr %2, align 8, !tbaa !13
  %3 = load ptr, ptr %2, align 8, !tbaa !13
  ret ptr %3
}

; Function Attrs: alwaysinline nounwind uwtable
define internal i64 @avio_tell(ptr noundef %0) #5 {
  %2 = alloca ptr, align 8
  store ptr %0, ptr %2, align 8, !tbaa !30
  %3 = load ptr, ptr %2, align 8, !tbaa !30
  %4 = call i64 @avio_seek(ptr noundef %3, i64 noundef 0, i32 noundef 1)
  ret i64 %4
}

; Function Attrs: nounwind uwtable
define internal i32 @yuv4_read_packet(ptr noundef %0, ptr noundef %1) #0 {
  %3 = alloca i32, align 4
  %4 = alloca ptr, align 8
  %5 = alloca ptr, align 8
  %6 = alloca i32, align 4
  %7 = alloca [81 x i8], align 16
  %8 = alloca i32, align 4
  %9 = alloca i64, align 8
  %10 = alloca i32, align 4
  store ptr %0, ptr %4, align 8, !tbaa !13
  store ptr %1, ptr %5, align 8, !tbaa !78
  call void @llvm.lifetime.start.p0(i64 4, ptr %6) #8
  call void @llvm.lifetime.start.p0(i64 81, ptr %7) #8
  call void @llvm.lifetime.start.p0(i64 4, ptr %8) #8
  call void @llvm.lifetime.start.p0(i64 8, ptr %9) #8
  %11 = load ptr, ptr %4, align 8, !tbaa !13
  %12 = getelementptr inbounds nuw %struct.AVFormatContext, ptr %11, i32 0, i32 4
  %13 = load ptr, ptr %12, align 8, !tbaa !15
  %14 = call i64 @avio_tell(ptr noundef %13)
  store i64 %14, ptr %9, align 8, !tbaa !43
  store i32 0, ptr %6, align 4, !tbaa !31
  br label %15

15:                                               ; preds = %39, %2
  %16 = load i32, ptr %6, align 4, !tbaa !31
  %17 = icmp slt i32 %16, 80
  br i1 %17, label %18, label %42

18:                                               ; preds = %15
  %19 = load ptr, ptr %4, align 8, !tbaa !13
  %20 = getelementptr inbounds nuw %struct.AVFormatContext, ptr %19, i32 0, i32 4
  %21 = load ptr, ptr %20, align 8, !tbaa !15
  %22 = call i32 @avio_r8(ptr noundef %21)
  %23 = trunc i32 %22 to i8
  %24 = load i32, ptr %6, align 4, !tbaa !31
  %25 = sext i32 %24 to i64
  %26 = getelementptr inbounds [81 x i8], ptr %7, i64 0, i64 %25
  store i8 %23, ptr %26, align 1, !tbaa !32
  %27 = load i32, ptr %6, align 4, !tbaa !31
  %28 = sext i32 %27 to i64
  %29 = getelementptr inbounds [81 x i8], ptr %7, i64 0, i64 %28
  %30 = load i8, ptr %29, align 1, !tbaa !32
  %31 = sext i8 %30 to i32
  %32 = icmp eq i32 %31, 10
  br i1 %32, label %33, label %38

33:                                               ; preds = %18
  %34 = load i32, ptr %6, align 4, !tbaa !31
  %35 = add nsw i32 %34, 1
  %36 = sext i32 %35 to i64
  %37 = getelementptr inbounds [81 x i8], ptr %7, i64 0, i64 %36
  store i8 0, ptr %37, align 1, !tbaa !32
  br label %42

38:                                               ; preds = %18
  br label %39

39:                                               ; preds = %38
  %40 = load i32, ptr %6, align 4, !tbaa !31
  %41 = add nsw i32 %40, 1
  store i32 %41, ptr %6, align 4, !tbaa !31
  br label %15, !llvm.loop !79

42:                                               ; preds = %33, %15
  %43 = load ptr, ptr %4, align 8, !tbaa !13
  %44 = getelementptr inbounds nuw %struct.AVFormatContext, ptr %43, i32 0, i32 4
  %45 = load ptr, ptr %44, align 8, !tbaa !15
  %46 = getelementptr inbounds nuw %struct.AVIOContext, ptr %45, i32 0, i32 11
  %47 = load i32, ptr %46, align 4, !tbaa !80
  %48 = icmp ne i32 %47, 0
  br i1 %48, label %49, label %55

49:                                               ; preds = %42
  %50 = load ptr, ptr %4, align 8, !tbaa !13
  %51 = getelementptr inbounds nuw %struct.AVFormatContext, ptr %50, i32 0, i32 4
  %52 = load ptr, ptr %51, align 8, !tbaa !15
  %53 = getelementptr inbounds nuw %struct.AVIOContext, ptr %52, i32 0, i32 11
  %54 = load i32, ptr %53, align 4, !tbaa !80
  store i32 %54, ptr %3, align 4
  store i32 1, ptr %10, align 4
  br label %122

55:                                               ; preds = %42
  %56 = load ptr, ptr %4, align 8, !tbaa !13
  %57 = getelementptr inbounds nuw %struct.AVFormatContext, ptr %56, i32 0, i32 4
  %58 = load ptr, ptr %57, align 8, !tbaa !15
  %59 = getelementptr inbounds nuw %struct.AVIOContext, ptr %58, i32 0, i32 10
  %60 = load i32, ptr %59, align 8, !tbaa !82
  %61 = icmp ne i32 %60, 0
  br i1 %61, label %62, label %63

62:                                               ; preds = %55
  store i32 -541478725, ptr %3, align 4
  store i32 1, ptr %10, align 4
  br label %122

63:                                               ; preds = %55
  %64 = load i32, ptr %6, align 4, !tbaa !31
  %65 = icmp eq i32 %64, 80
  br i1 %65, label %66, label %67

66:                                               ; preds = %63
  store i32 -1094995529, ptr %3, align 4
  store i32 1, ptr %10, align 4
  br label %122

67:                                               ; preds = %63
  br label %68

68:                                               ; preds = %67
  br label %69

69:                                               ; preds = %68
  %70 = getelementptr inbounds [81 x i8], ptr %7, i64 0, i64 0
  %71 = call i32 @strncmp(ptr noundef %70, ptr noundef @.str.15, i64 noundef 5) #7
  %72 = icmp ne i32 %71, 0
  br i1 %72, label %73, label %74

73:                                               ; preds = %69
  store i32 -1094995529, ptr %3, align 4
  store i32 1, ptr %10, align 4
  br label %122

74:                                               ; preds = %69
  %75 = load ptr, ptr %4, align 8, !tbaa !13
  %76 = getelementptr inbounds nuw %struct.AVFormatContext, ptr %75, i32 0, i32 4
  %77 = load ptr, ptr %76, align 8, !tbaa !15
  %78 = load ptr, ptr %5, align 8, !tbaa !78
  %79 = load ptr, ptr %4, align 8, !tbaa !13
  %80 = getelementptr inbounds nuw %struct.AVFormatContext, ptr %79, i32 0, i32 16
  %81 = load i32, ptr %80, align 8, !tbaa !71
  %82 = sub i32 %81, 6
  %83 = call i32 @av_get_packet(ptr noundef %77, ptr noundef %78, i32 noundef %82)
  store i32 %83, ptr %8, align 4, !tbaa !31
  %84 = load i32, ptr %8, align 4, !tbaa !31
  %85 = icmp slt i32 %84, 0
  br i1 %85, label %86, label %88

86:                                               ; preds = %74
  %87 = load i32, ptr %8, align 4, !tbaa !31
  store i32 %87, ptr %3, align 4
  store i32 1, ptr %10, align 4
  br label %122

88:                                               ; preds = %74
  %89 = load i32, ptr %8, align 4, !tbaa !31
  %90 = load ptr, ptr %4, align 8, !tbaa !13
  %91 = getelementptr inbounds nuw %struct.AVFormatContext, ptr %90, i32 0, i32 16
  %92 = load i32, ptr %91, align 8, !tbaa !71
  %93 = sub i32 %92, 6
  %94 = icmp ne i32 %89, %93
  br i1 %94, label %95, label %103

95:                                               ; preds = %88
  %96 = load ptr, ptr %4, align 8, !tbaa !13
  %97 = getelementptr inbounds nuw %struct.AVFormatContext, ptr %96, i32 0, i32 4
  %98 = load ptr, ptr %97, align 8, !tbaa !15
  %99 = getelementptr inbounds nuw %struct.AVIOContext, ptr %98, i32 0, i32 10
  %100 = load i32, ptr %99, align 8, !tbaa !82
  %101 = icmp ne i32 %100, 0
  %102 = select i1 %101, i32 -541478725, i32 -5
  store i32 %102, ptr %3, align 4
  store i32 1, ptr %10, align 4
  br label %122

103:                                              ; preds = %88
  br label %104

104:                                              ; preds = %103
  %105 = load ptr, ptr %5, align 8, !tbaa !78
  %106 = getelementptr inbounds nuw %struct.AVPacket, ptr %105, i32 0, i32 5
  store i32 0, ptr %106, align 4, !tbaa !83
  %107 = load i64, ptr %9, align 8, !tbaa !43
  %108 = load ptr, ptr %4, align 8, !tbaa !13
  %109 = call ptr @ffformatcontext(ptr noundef %108)
  %110 = getelementptr inbounds nuw %struct.FFFormatContext, ptr %109, i32 0, i32 3
  %111 = load i64, ptr %110, align 8, !tbaa !72
  %112 = sub nsw i64 %107, %111
  %113 = load ptr, ptr %4, align 8, !tbaa !13
  %114 = getelementptr inbounds nuw %struct.AVFormatContext, ptr %113, i32 0, i32 16
  %115 = load i32, ptr %114, align 8, !tbaa !71
  %116 = zext i32 %115 to i64
  %117 = sdiv i64 %112, %116
  %118 = load ptr, ptr %5, align 8, !tbaa !78
  %119 = getelementptr inbounds nuw %struct.AVPacket, ptr %118, i32 0, i32 1
  store i64 %117, ptr %119, align 8, !tbaa !84
  %120 = load ptr, ptr %5, align 8, !tbaa !78
  %121 = getelementptr inbounds nuw %struct.AVPacket, ptr %120, i32 0, i32 9
  store i64 1, ptr %121, align 8, !tbaa !85
  store i32 0, ptr %3, align 4
  store i32 1, ptr %10, align 4
  br label %122

122:                                              ; preds = %104, %95, %86, %73, %66, %62, %49
  call void @llvm.lifetime.end.p0(i64 8, ptr %9) #8
  call void @llvm.lifetime.end.p0(i64 4, ptr %8) #8
  call void @llvm.lifetime.end.p0(i64 81, ptr %7) #8
  call void @llvm.lifetime.end.p0(i64 4, ptr %6) #8
  %123 = load i32, ptr %3, align 4
  ret i32 %123
}