; Function Attrs: nounwind uwtable
define internal i32 @yuv4_read_packet(ptr noundef readonly captures(none) %0, ptr noundef %1) #1 {
  %3 = alloca [81 x i8], align 16
  call void @llvm.lifetime.start.p0(i64 81, ptr nonnull %3) #10
  %4 = getelementptr inbounds nuw i8, ptr %0, i64 32
  %5 = load ptr, ptr %4, align 8, !tbaa !11
  %6 = tail call i64 @avio_seek(ptr noundef %5, i64 noundef 0, i32 noundef 1) #10
  br label %7

7:                                                ; preds = %2, %18
  %indvars.iv = phi i64 [ 0, %2 ], [ %13, %18 ]
  %8 = load ptr, ptr %4, align 8, !tbaa !11
  %9 = tail call i32 @avio_r8(ptr noundef %8) #10
  %10 = trunc i32 %9 to i8
  %11 = getelementptr inbounds nuw [81 x i8], ptr %3, i64 0, i64 %indvars.iv
  store i8 %10, ptr %11, align 1, !tbaa !27
  %sext.mask = and i32 %9, 255
  %12 = icmp eq i32 %sext.mask, 10
  %13 = add nuw i64 %indvars.iv, 1
  br i1 %12, label %14, label %18

14:                                               ; preds = %7
  %15 = and i64 %13, 4294967295
  %16 = getelementptr inbounds nuw [81 x i8], ptr %3, i64 0, i64 %15
  store i8 0, ptr %16, align 1, !tbaa !27
  %17 = icmp eq i64 %indvars.iv, 80
  br label %.loopexit

18:                                               ; preds = %7
  %exitcond.not = icmp eq i64 %13, 80
  br i1 %exitcond.not, label %.loopexit, label %7, !llvm.loop !67

.loopexit:                                        ; preds = %18, %14
  %.02533 = phi i1 [ %17, %14 ], [ true, %18 ]
  %19 = load ptr, ptr %4, align 8, !tbaa !11
  %20 = getelementptr inbounds nuw i8, ptr %19, i64 84
  %21 = load i32, ptr %20, align 4, !tbaa !68
  %.not = icmp eq i32 %21, 0
  br i1 %.not, label %22, label %49

22:                                               ; preds = %.loopexit
  %23 = getelementptr inbounds nuw i8, ptr %19, i64 80
  %24 = load i32, ptr %23, align 8, !tbaa !70
  %.not28 = icmp ne i32 %24, 0
  %brmerge = or i1 %.not28, %.02533
  %.mux = select i1 %.not28, i32 -541478725, i32 -1094995529
  br i1 %brmerge, label %49, label %25

25:                                               ; preds = %22
  %bcmp = call i32 @bcmp(ptr noundef nonnull dereferenceable(5) %3, ptr noundef nonnull dereferenceable(5) @.str.15, i64 5)
  %.not29 = icmp eq i32 %bcmp, 0
  br i1 %.not29, label %26, label %49

26:                                               ; preds = %25
  %27 = getelementptr inbounds nuw i8, ptr %0, i64 120
  %28 = load i32, ptr %27, align 8, !tbaa !60
  %29 = add i32 %28, -6
  %30 = tail call i32 @av_get_packet(ptr noundef nonnull %19, ptr noundef %1, i32 noundef %29) #10
  %31 = icmp slt i32 %30, 0
  br i1 %31, label %49, label %32

32:                                               ; preds = %26
  %33 = load i32, ptr %27, align 8, !tbaa !60
  %34 = add i32 %33, -6
  %.not30 = icmp eq i32 %30, %34
  br i1 %.not30, label %40, label %35

35:                                               ; preds = %32
  %36 = load ptr, ptr %4, align 8, !tbaa !11
  %37 = getelementptr inbounds nuw i8, ptr %36, i64 80
  %38 = load i32, ptr %37, align 8, !tbaa !70
  %.not31 = icmp eq i32 %38, 0
  %39 = select i1 %.not31, i32 -5, i32 -541478725
  br label %49

40:                                               ; preds = %32
  %41 = getelementptr inbounds nuw i8, ptr %1, i64 36
  store i32 0, ptr %41, align 4, !tbaa !71
  %42 = getelementptr inbounds nuw i8, ptr %0, i64 496
  %43 = load i64, ptr %42, align 8, !tbaa !61
  %44 = sub nsw i64 %6, %43
  %45 = zext i32 %33 to i64
  %46 = sdiv i64 %44, %45
  %47 = getelementptr inbounds nuw i8, ptr %1, i64 8
  store i64 %46, ptr %47, align 8, !tbaa !72
  %48 = getelementptr inbounds nuw i8, ptr %1, i64 64
  store i64 1, ptr %48, align 8, !tbaa !73
  br label %49

49:                                               ; preds = %22, %26, %25, %.loopexit, %40, %35
  %.0 = phi i32 [ %39, %35 ], [ 0, %40 ], [ %21, %.loopexit ], [ %.mux, %22 ], [ -1094995529, %25 ], [ %30, %26 ]
  call void @llvm.lifetime.end.p0(i64 81, ptr nonnull %3) #10
  ret i32 %.0
}